; Function Attrs: mustprogress uwtable
define hidden void @_ZN2dd6solver14simplify_usingER10ptr_vectorINS0_8equationEERKS2_(ptr noundef nonnull align 8 dereferenceable(208) %this, ptr noundef nonnull align 8 dereferenceable(8) %set, ptr noundef nonnull align 8 dereferenceable(32) %eq) local_unnamed_addr #5 align 2 personality ptr @__gxx_personality_v0 {
entry:
  %simplifier = alloca %"class.std::function.21", align 8
  %_M_manager.i.i = getelementptr inbounds i8, ptr %simplifier, i64 16
  %_M_invoker.i = getelementptr inbounds i8, ptr %simplifier, i64 24
  store ptr %this, ptr %simplifier, align 8
  %ref.tmp.sroa.2.0.simplifier.sroa_idx = getelementptr inbounds i8, ptr %simplifier, i64 8
  store ptr %eq, ptr %ref.tmp.sroa.2.0.simplifier.sroa_idx, align 8
  store ptr @"_ZNSt17_Function_handlerIFbRN2dd6solver8equationERbEZNS1_14simplify_usingER10ptr_vectorIS2_ERKS2_E3$_0E9_M_invokeERKSt9_Any_dataS3_S4_", ptr %_M_invoker.i, align 8
  store ptr @"_ZNSt17_Function_handlerIFbRN2dd6solver8equationERbEZNS1_14simplify_usingER10ptr_vectorIS2_ERKS2_E3$_0E10_M_managerERSt9_Any_dataRKSD_St18_Manager_operation", ptr %_M_manager.i.i, align 8
  invoke void @_ZN2dd6solver14simplify_usingER10ptr_vectorINS0_8equationEERSt8functionIFbRS2_RbEE(ptr noundef nonnull align 8 dereferenceable(208) %this, ptr noundef nonnull align 8 dereferenceable(8) %set, ptr noundef nonnull align 8 dereferenceable(32) %simplifier)
          to label %invoke.cont unwind label %lpad

invoke.cont:                                      ; preds = %entry
  %0 = load ptr, ptr %_M_manager.i.i, align 8
  %tobool.not.i.i = icmp eq ptr %0, null
  br i1 %tobool.not.i.i, label %_ZNSt8functionIFbRN2dd6solver8equationERbEED2Ev.exit, label %if.then.i.i

if.then.i.i:                                      ; preds = %invoke.cont
  %call.i.i = invoke noundef zeroext i1 %0(ptr noundef nonnull align 8 dereferenceable(16) %simplifier, ptr noundef nonnull align 8 dereferenceable(16) %simplifier, i32 noundef 3)
          to label %_ZNSt8functionIFbRN2dd6solver8equationERbEED2Ev.exit unwind label %terminate.lpad.i.i

terminate.lpad.i.i:                               ; preds = %if.then.i.i
  %1 = landingpad { ptr, i32 }
          catch ptr null
  %2 = extractvalue { ptr, i32 } %1, 0
  call void @__clang_call_terminate(ptr %2) #24
  unreachable

_ZNSt8functionIFbRN2dd6solver8equationERbEED2Ev.exit: ; preds = %invoke.cont, %if.then.i.i
  ret void

lpad:                                             ; preds = %entry
  %3 = landingpad { ptr, i32 }
          cleanup
  %4 = load ptr, ptr %_M_manager.i.i, align 8
  %tobool.not.i.i3 = icmp eq ptr %4, null
  br i1 %tobool.not.i.i3, label %_ZNSt8functionIFbRN2dd6solver8equationERbEED2Ev.exit7, label %if.then.i.i4

if.then.i.i4:                                     ; preds = %lpad
  %call.i.i5 = invoke noundef zeroext i1 %4(ptr noundef nonnull align 8 dereferenceable(16) %simplifier, ptr noundef nonnull align 8 dereferenceable(16) %simplifier, i32 noundef 3)
          to label %_ZNSt8functionIFbRN2dd6solver8equationERbEED2Ev.exit7 unwind label %terminate.lpad.i.i6

terminate.lpad.i.i6:                              ; preds = %if.then.i.i4
  %5 = landingpad { ptr, i32 }
          catch ptr null
  %6 = extractvalue { ptr, i32 } %5, 0
  call void @__clang_call_terminate(ptr %6) #24
  unreachable

_ZNSt8functionIFbRN2dd6solver8equationERbEED2Ev.exit7: ; preds = %lpad, %if.then.i.i4
  resume { ptr, i32 } %3
}